target datalayout = "e-m:e-p270:32:32-p271:32:32-p272:64:64-i64:64-i128:128-f80:128-n8:16:32:64-S128"
target triple = "x86_64-pc-linux-gnu"

@.str.2 = private unnamed_addr constant [2 x i8] c"*\00", align 1
@.str.3 = private unnamed_addr constant [26 x i8] c"Empty pattern not allowed\00", align 1
@.str.5 = private unnamed_addr constant [74 x i8] c"Invalid character in pattern (Only [a-zA-Z0-9_.-] allowed, or a single *)\00", align 1

; Function Attrs: nounwind uwtable
define hidden ptr @validate_list(ptr noundef %0) #0 {
  %2 = alloca ptr, align 8
  %3 = alloca ptr, align 8
  %4 = alloca ptr, align 8
  %5 = alloca i32, align 4
  store ptr %0, ptr %3, align 8
  %6 = load ptr, ptr %3, align 8
  %7 = call i32 @SDL_strcmp_REAL(ptr noundef %6, ptr noundef @.str.2)
  %8 = icmp eq i32 %7, 0
  br i1 %8, label %9, label %10

9:                                                ; preds = %1
  store ptr null, ptr %2, align 8
  br label %100

10:                                               ; preds = %1
  call void @llvm.lifetime.start.p0(i64 8, ptr %4) #4
  %11 = load ptr, ptr %3, align 8
  store ptr %11, ptr %4, align 8
  br label %12

12:                                               ; preds = %83, %10
  %13 = load ptr, ptr %4, align 8
  %14 = load i8, ptr %13, align 1
  %15 = icmp ne i8 %14, 0
  br i1 %15, label %17, label %16

16:                                               ; preds = %12
  store i32 2, ptr %5, align 4
  br label %86

17:                                               ; preds = %12
  %18 = load ptr, ptr %4, align 8
  %19 = load i8, ptr %18, align 1
  %20 = sext i8 %19 to i32
  %21 = icmp sge i32 %20, 97
  br i1 %21, label %22, label %27

22:                                               ; preds = %17
  %23 = load ptr, ptr %4, align 8
  %24 = load i8, ptr %23, align 1
  %25 = sext i8 %24 to i32
  %26 = icmp sle i32 %25, 122
  br i1 %26, label %62, label %27

27:                                               ; preds = %22, %17
  %28 = load ptr, ptr %4, align 8
  %29 = load i8, ptr %28, align 1
  %30 = sext i8 %29 to i32
  %31 = icmp sge i32 %30, 65
  br i1 %31, label %32, label %37

32:                                               ; preds = %27
  %33 = load ptr, ptr %4, align 8
  %34 = load i8, ptr %33, align 1
  %35 = sext i8 %34 to i32
  %36 = icmp sle i32 %35, 90
  br i1 %36, label %62, label %37

37:                                               ; preds = %32, %27
  %38 = load ptr, ptr %4, align 8
  %39 = load i8, ptr %38, align 1
  %40 = sext i8 %39 to i32
  %41 = icmp sge i32 %40, 48
  br i1 %41, label %42, label %47

42:                                               ; preds = %37
  %43 = load ptr, ptr %4, align 8
  %44 = load i8, ptr %43, align 1
  %45 = sext i8 %44 to i32
  %46 = icmp sle i32 %45, 57
  br i1 %46, label %62, label %47

47:                                               ; preds = %42, %37
  %48 = load ptr, ptr %4, align 8
  %49 = load i8, ptr %48, align 1
  %50 = sext i8 %49 to i32
  %51 = icmp eq i32 %50, 45
  br i1 %51, label %62, label %52

52:                                               ; preds = %47
  %53 = load ptr, ptr %4, align 8
  %54 = load i8, ptr %53, align 1
  %55 = sext i8 %54 to i32
  %56 = icmp eq i32 %55, 95
  br i1 %56, label %62, label %57

57:                                               ; preds = %52
  %58 = load ptr, ptr %4, align 8
  %59 = load i8, ptr %58, align 1
  %60 = sext i8 %59 to i32
  %61 = icmp eq i32 %60, 46
  br i1 %61, label %62, label %63

62:                                               ; preds = %57, %52, %47, %42, %32, %22
  br label %83

63:                                               ; preds = %57
  %64 = load ptr, ptr %4, align 8
  %65 = load i8, ptr %64, align 1
  %66 = sext i8 %65 to i32
  %67 = icmp eq i32 %66, 59
  br i1 %67, label %68, label %80

68:                                               ; preds = %63
  %69 = load ptr, ptr %4, align 8
  %70 = load ptr, ptr %3, align 8
  %71 = icmp eq ptr %69, %70
  br i1 %71, label %78, label %72

72:                                               ; preds = %68
  %73 = load ptr, ptr %4, align 8
  %74 = getelementptr inbounds i8, ptr %73, i64 -1
  %75 = load i8, ptr %74, align 1
  %76 = sext i8 %75 to i32
  %77 = icmp eq i32 %76, 59
  br i1 %77, label %78, label %79

78:                                               ; preds = %72, %68
  store ptr @.str.3, ptr %2, align 8
  store i32 1, ptr %5, align 4
  br label %86

79:                                               ; preds = %72
  br label %81

80:                                               ; preds = %63
  store ptr @.str.5, ptr %2, align 8
  store i32 1, ptr %5, align 4
  br label %86

81:                                               ; preds = %79
  br label %82

82:                                               ; preds = %81
  br label %83

83:                                               ; preds = %82, %62
  %84 = load ptr, ptr %4, align 8
  %85 = getelementptr inbounds nuw i8, ptr %84, i32 1
  store ptr %85, ptr %4, align 8
  br label %12, !llvm.loop !8

86:                                               ; preds = %80, %78, %16
  call void @llvm.lifetime.end.p0(i64 8, ptr %4) #4
  %87 = load i32, ptr %5, align 4
  switch i32 %87, label %102 [
    i32 2, label %88
    i32 1, label %100
  ]

88:                                               ; preds = %86
  br label %89

89:                                               ; preds = %88
  %90 = load ptr, ptr %3, align 8
  %91 = load ptr, ptr %3, align 8
  %92 = call i64 @SDL_strlen_REAL(ptr noundef %91)
  %93 = sub i64 %92, 1
  %94 = getelementptr inbounds nuw i8, ptr %90, i64 %93
  %95 = load i8, ptr %94, align 1
  %96 = sext i8 %95 to i32
  %97 = icmp eq i32 %96, 59
  br i1 %97, label %98, label %99

98:                                               ; preds = %89
  store ptr @.str.3, ptr %2, align 8
  br label %100

99:                                               ; preds = %89
  store ptr null, ptr %2, align 8
  br label %100

100:                                              ; preds = %99, %98, %86, %9
  %101 = load ptr, ptr %2, align 8
  ret ptr %101

102:                                              ; preds = %86
  unreachable
}