; Function Attrs: nounwind uwtable
define hidden ptr @validate_list(ptr noundef %0) local_unnamed_addr #0 {
  %2 = tail call i32 @SDL_strcmp_REAL(ptr noundef %0, ptr noundef nonnull @.str.2) #4
  %3 = icmp eq i32 %2, 0
  br i1 %3, label %.thread, label %.preheader

.preheader:                                       ; preds = %1
  %4 = load i8, ptr %0, align 1
  %.not35 = icmp eq i8 %4, 0
  br i1 %.not35, label %._crit_edge, label %.lr.ph

.lr.ph:                                           ; preds = %.preheader, %16
  %5 = phi i8 [ %18, %16 ], [ %4, %.preheader ]
  %.02036 = phi ptr [ %17, %16 ], [ %0, %.preheader ]
  %6 = and i8 %5, -33
  %7 = add i8 %6, -65
  %or.cond33 = icmp ult i8 %7, 26
  %8 = add i8 %5, -48
  %or.cond28 = icmp ult i8 %8, 10
  %or.cond34 = or i1 %or.cond28, %or.cond33
  br i1 %or.cond34, label %16, label %9

9:                                                ; preds = %.lr.ph
  switch i8 %5, label %.thread [
    i8 45, label %16
    i8 95, label %16
    i8 46, label %16
    i8 59, label %10
  ]

10:                                               ; preds = %9
  %11 = icmp eq ptr %.02036, %0
  br i1 %11, label %.thread, label %12

12:                                               ; preds = %10
  %13 = getelementptr inbounds i8, ptr %.02036, i64 -1
  %14 = load i8, ptr %13, align 1
  %15 = icmp eq i8 %14, 59
  br i1 %15, label %.thread, label %16

16:                                               ; preds = %9, %9, %9, %.lr.ph, %12
  %17 = getelementptr inbounds nuw i8, ptr %.02036, i64 1
  %18 = load i8, ptr %17, align 1
  %.not = icmp eq i8 %18, 0
  br i1 %.not, label %._crit_edge, label %.lr.ph, !llvm.loop !7

._crit_edge:                                      ; preds = %16, %.preheader
  %19 = tail call i64 @SDL_strlen_REAL(ptr noundef nonnull %0) #4
  %20 = getelementptr i8, ptr %0, i64 %19
  %21 = getelementptr i8, ptr %20, i64 -1
  %22 = load i8, ptr %21, align 1
  %23 = icmp eq i8 %22, 59
  %.str.3. = select i1 %23, ptr @.str.3, ptr null
  br label %.thread

.thread:                                          ; preds = %9, %10, %12, %._crit_edge, %1
  %.021 = phi ptr [ null, %1 ], [ %.str.3., %._crit_edge ], [ @.str.3, %12 ], [ @.str.3, %10 ], [ @.str.5, %9 ]
  ret ptr %.021
}